target datalayout = "e-m:e-p270:32:32-p271:32:32-p272:64:64-i64:64-i128:128-f80:128-n8:16:32:64-S128"
target triple = "x86_64-unknown-linux-gnu"

%class.b2Shape = type { ptr, i32, float }
%class.b2PolygonShape = type <{ %class.b2Shape, %struct.b2Vec2, [8 x %struct.b2Vec2], [8 x %struct.b2Vec2], i32, [4 x i8] }>
%struct.b2Vec2 = type { float, float }
%struct.b2Transform = type { %struct.b2Vec2, %struct.b2Rot }
%struct.b2Rot = type { float, float }
%struct.b2RayCastInput = type { %struct.b2Vec2, %struct.b2Vec2, float }
%struct.b2RayCastOutput = type { %struct.b2Vec2, float }

; Function Attrs: mustprogress nounwind uwtable
define linkonce_odr hidden void @_ZN6b2Vec2C2Eff(ptr noundef nonnull align 4 dereferenceable(8) %this, float noundef %xIn, float noundef %yIn) unnamed_addr #1 comdat align 2 {
entry:
  %this.addr = alloca ptr, align 8
  %xIn.addr = alloca float, align 4
  %yIn.addr = alloca float, align 4
  store ptr %this, ptr %this.addr, align 8
  store float %xIn, ptr %xIn.addr, align 4
  store float %yIn, ptr %yIn.addr, align 4
  %this1 = load ptr, ptr %this.addr, align 8
  %x = getelementptr inbounds %struct.b2Vec2, ptr %this1, i32 0, i32 0
  %0 = load float, ptr %xIn.addr, align 4
  store float %0, ptr %x, align 4
  %y = getelementptr inbounds %struct.b2Vec2, ptr %this1, i32 0, i32 1
  %1 = load float, ptr %yIn.addr, align 4
  store float %1, ptr %y, align 4
  ret void
}

; Function Attrs: mustprogress uwtable
define linkonce_odr hidden <2 x float> @_Z5b2MulRK5b2RotRK6b2Vec2(ptr noundef nonnull align 4 dereferenceable(8) %q, ptr noundef nonnull align 4 dereferenceable(8) %v) #3 comdat {
entry:
  %retval = alloca %struct.b2Vec2, align 4
  %q.addr = alloca ptr, align 8
  %v.addr = alloca ptr, align 8
  store ptr %q, ptr %q.addr, align 8
  store ptr %v, ptr %v.addr, align 8
  %0 = load ptr, ptr %q.addr, align 8
  %c = getelementptr inbounds %struct.b2Rot, ptr %0, i32 0, i32 1
  %1 = load float, ptr %c, align 4
  %2 = load ptr, ptr %v.addr, align 8
  %x = getelementptr inbounds %struct.b2Vec2, ptr %2, i32 0, i32 0
  %3 = load float, ptr %x, align 4
  %4 = load ptr, ptr %q.addr, align 8
  %s = getelementptr inbounds %struct.b2Rot, ptr %4, i32 0, i32 0
  %5 = load float, ptr %s, align 4
  %6 = load ptr, ptr %v.addr, align 8
  %y = getelementptr inbounds %struct.b2Vec2, ptr %6, i32 0, i32 1
  %7 = load float, ptr %y, align 4
  %mul1 = fmul float %5, %7
  %neg = fneg float %mul1
  %8 = call float @llvm.fmuladd.f32(float %1, float %3, float %neg)
  %9 = load ptr, ptr %q.addr, align 8
  %s2 = getelementptr inbounds %struct.b2Rot, ptr %9, i32 0, i32 0
  %10 = load float, ptr %s2, align 4
  %11 = load ptr, ptr %v.addr, align 8
  %x3 = getelementptr inbounds %struct.b2Vec2, ptr %11, i32 0, i32 0
  %12 = load float, ptr %x3, align 4
  %13 = load ptr, ptr %q.addr, align 8
  %c4 = getelementptr inbounds %struct.b2Rot, ptr %13, i32 0, i32 1
  %14 = load float, ptr %c4, align 4
  %15 = load ptr, ptr %v.addr, align 8
  %y5 = getelementptr inbounds %struct.b2Vec2, ptr %15, i32 0, i32 1
  %16 = load float, ptr %y5, align 4
  %mul6 = fmul float %14, %16
  %17 = call float @llvm.fmuladd.f32(float %10, float %12, float %mul6)
  call void @_ZN6b2Vec2C2Eff(ptr noundef nonnull align 4 dereferenceable(8) %retval, float noundef %8, float noundef %17)
  %18 = load <2 x float>, ptr %retval, align 4
  ret <2 x float> %18
}

; Function Attrs: mustprogress nounwind uwtable
define linkonce_odr hidden noundef float @_Z5b2DotRK6b2Vec2S1_(ptr noundef nonnull align 4 dereferenceable(8) %a, ptr noundef nonnull align 4 dereferenceable(8) %b) #1 comdat {
entry:
  %a.addr = alloca ptr, align 8
  %b.addr = alloca ptr, align 8
  store ptr %a, ptr %a.addr, align 8
  store ptr %b, ptr %b.addr, align 8
  %0 = load ptr, ptr %a.addr, align 8
  %x = getelementptr inbounds %struct.b2Vec2, ptr %0, i32 0, i32 0
  %1 = load float, ptr %x, align 4
  %2 = load ptr, ptr %b.addr, align 8
  %x1 = getelementptr inbounds %struct.b2Vec2, ptr %2, i32 0, i32 0
  %3 = load float, ptr %x1, align 4
  %4 = load ptr, ptr %a.addr, align 8
  %y = getelementptr inbounds %struct.b2Vec2, ptr %4, i32 0, i32 1
  %5 = load float, ptr %y, align 4
  %6 = load ptr, ptr %b.addr, align 8
  %y2 = getelementptr inbounds %struct.b2Vec2, ptr %6, i32 0, i32 1
  %7 = load float, ptr %y2, align 4
  %mul3 = fmul float %5, %7
  %8 = call float @llvm.fmuladd.f32(float %1, float %3, float %mul3)
  ret float %8
}

; Function Attrs: mustprogress uwtable
define linkonce_odr hidden <2 x float> @_Z6b2MulTRK5b2RotRK6b2Vec2(ptr noundef nonnull align 4 dereferenceable(8) %q, ptr noundef nonnull align 4 dereferenceable(8) %v) #3 comdat {
entry:
  %retval = alloca %struct.b2Vec2, align 4
  %q.addr = alloca ptr, align 8
  %v.addr = alloca ptr, align 8
  store ptr %q, ptr %q.addr, align 8
  store ptr %v, ptr %v.addr, align 8
  %0 = load ptr, ptr %q.addr, align 8
  %c = getelementptr inbounds %struct.b2Rot, ptr %0, i32 0, i32 1
  %1 = load float, ptr %c, align 4
  %2 = load ptr, ptr %v.addr, align 8
  %x = getelementptr inbounds %struct.b2Vec2, ptr %2, i32 0, i32 0
  %3 = load float, ptr %x, align 4
  %4 = load ptr, ptr %q.addr, align 8
  %s = getelementptr inbounds %struct.b2Rot, ptr %4, i32 0, i32 0
  %5 = load float, ptr %s, align 4
  %6 = load ptr, ptr %v.addr, align 8
  %y = getelementptr inbounds %struct.b2Vec2, ptr %6, i32 0, i32 1
  %7 = load float, ptr %y, align 4
  %mul1 = fmul float %5, %7
  %8 = call float @llvm.fmuladd.f32(float %1, float %3, float %mul1)
  %9 = load ptr, ptr %q.addr, align 8
  %s2 = getelementptr inbounds %struct.b2Rot, ptr %9, i32 0, i32 0
  %10 = load float, ptr %s2, align 4
  %fneg = fneg float %10
  %11 = load ptr, ptr %v.addr, align 8
  %x3 = getelementptr inbounds %struct.b2Vec2, ptr %11, i32 0, i32 0
  %12 = load float, ptr %x3, align 4
  %13 = load ptr, ptr %q.addr, align 8
  %c4 = getelementptr inbounds %struct.b2Rot, ptr %13, i32 0, i32 1
  %14 = load float, ptr %c4, align 4
  %15 = load ptr, ptr %v.addr, align 8
  %y5 = getelementptr inbounds %struct.b2Vec2, ptr %15, i32 0, i32 1
  %16 = load float, ptr %y5, align 4
  %mul6 = fmul float %14, %16
  %17 = call float @llvm.fmuladd.f32(float %fneg, float %12, float %mul6)
  call void @_ZN6b2Vec2C2Eff(ptr noundef nonnull align 4 dereferenceable(8) %retval, float noundef %8, float noundef %17)
  %18 = load <2 x float>, ptr %retval, align 4
  ret <2 x float> %18
}

; Function Attrs: mustprogress uwtable
define linkonce_odr hidden <2 x float> @_ZmiRK6b2Vec2S1_(ptr noundef nonnull align 4 dereferenceable(8) %a, ptr noundef nonnull align 4 dereferenceable(8) %b) #3 comdat {
entry:
  %retval = alloca %struct.b2Vec2, align 4
  %a.addr = alloca ptr, align 8
  %b.addr = alloca ptr, align 8
  store ptr %a, ptr %a.addr, align 8
  store ptr %b, ptr %b.addr, align 8
  %0 = load ptr, ptr %a.addr, align 8
  %x = getelementptr inbounds %struct.b2Vec2, ptr %0, i32 0, i32 0
  %1 = load float, ptr %x, align 4
  %2 = load ptr, ptr %b.addr, align 8
  %x1 = getelementptr inbounds %struct.b2Vec2, ptr %2, i32 0, i32 0
  %3 = load float, ptr %x1, align 4
  %sub = fsub float %1, %3
  %4 = load ptr, ptr %a.addr, align 8
  %y = getelementptr inbounds %struct.b2Vec2, ptr %4, i32 0, i32 1
  %5 = load float, ptr %y, align 4
  %6 = load ptr, ptr %b.addr, align 8
  %y2 = getelementptr inbounds %struct.b2Vec2, ptr %6, i32 0, i32 1
  %7 = load float, ptr %y2, align 4
  %sub3 = fsub float %5, %7
  call void @_ZN6b2Vec2C2Eff(ptr noundef nonnull align 4 dereferenceable(8) %retval, float noundef %sub, float noundef %sub3)
  %8 = load <2 x float>, ptr %retval, align 4
  ret <2 x float> %8
}

; Function Attrs: mustprogress uwtable
define noundef zeroext i1 @_ZNK14b2PolygonShape7RayCastEP15b2RayCastOutputRK14b2RayCastInputRK11b2Transformi(ptr noundef nonnull align 8 dereferenceable(156) %this, ptr noundef %output, ptr noundef nonnull align 4 dereferenceable(20) %input, ptr noundef nonnull align 4 dereferenceable(16) %xf, i32 noundef %childIndex) unnamed_addr #3 align 2 {
entry:
  %retval = alloca i1, align 1
  %this.addr = alloca ptr, align 8
  %output.addr = alloca ptr, align 8
  %input.addr = alloca ptr, align 8
  %xf.addr = alloca ptr, align 8
  %childIndex.addr = alloca i32, align 4
  %p1 = alloca %struct.b2Vec2, align 4
  %ref.tmp = alloca %struct.b2Vec2, align 4
  %p2 = alloca %struct.b2Vec2, align 4
  %ref.tmp5 = alloca %struct.b2Vec2, align 4
  %d = alloca %struct.b2Vec2, align 4
  %lower = alloca float, align 4
  %upper = alloca float, align 4
  %index = alloca i32, align 4
  %i = alloca i32, align 4
  %numerator = alloca float, align 4
  %ref.tmp11 = alloca %struct.b2Vec2, align 4
  %denominator = alloca float, align 4
  %ref.tmp41 = alloca %struct.b2Vec2, align 4
  store ptr %this, ptr %this.addr, align 8
  store ptr %output, ptr %output.addr, align 8
  store ptr %input, ptr %input.addr, align 8
  store ptr %xf, ptr %xf.addr, align 8
  store i32 %childIndex, ptr %childIndex.addr, align 4
  %this1 = load ptr, ptr %this.addr, align 8
  %0 = load ptr, ptr %xf.addr, align 8
  %q = getelementptr inbounds %struct.b2Transform, ptr %0, i32 0, i32 1
  %1 = load ptr, ptr %input.addr, align 8
  %p12 = getelementptr inbounds %struct.b2RayCastInput, ptr %1, i32 0, i32 0
  %2 = load ptr, ptr %xf.addr, align 8
  %p = getelementptr inbounds %struct.b2Transform, ptr %2, i32 0, i32 0
  %call = call <2 x float> @_ZmiRK6b2Vec2S1_(ptr noundef nonnull align 4 dereferenceable(8) %p12, ptr noundef nonnull align 4 dereferenceable(8) %p)
  store <2 x float> %call, ptr %ref.tmp, align 4
  %call3 = call <2 x float> @_Z6b2MulTRK5b2RotRK6b2Vec2(ptr noundef nonnull align 4 dereferenceable(8) %q, ptr noundef nonnull align 4 dereferenceable(8) %ref.tmp)
  store <2 x float> %call3, ptr %p1, align 4
  %3 = load ptr, ptr %xf.addr, align 8
  %q4 = getelementptr inbounds %struct.b2Transform, ptr %3, i32 0, i32 1
  %4 = load ptr, ptr %input.addr, align 8
  %p26 = getelementptr inbounds %struct.b2RayCastInput, ptr %4, i32 0, i32 1
  %5 = load ptr, ptr %xf.addr, align 8
  %p7 = getelementptr inbounds %struct.b2Transform, ptr %5, i32 0, i32 0
  %call8 = call <2 x float> @_ZmiRK6b2Vec2S1_(ptr noundef nonnull align 4 dereferenceable(8) %p26, ptr noundef nonnull align 4 dereferenceable(8) %p7)
  store <2 x float> %call8, ptr %ref.tmp5, align 4
  %call9 = call <2 x float> @_Z6b2MulTRK5b2RotRK6b2Vec2(ptr noundef nonnull align 4 dereferenceable(8) %q4, ptr noundef nonnull align 4 dereferenceable(8) %ref.tmp5)
  store <2 x float> %call9, ptr %p2, align 4
  %call10 = call <2 x float> @_ZmiRK6b2Vec2S1_(ptr noundef nonnull align 4 dereferenceable(8) %p2, ptr noundef nonnull align 4 dereferenceable(8) %p1)
  store <2 x float> %call10, ptr %d, align 4
  store float 0.000000e+00, ptr %lower, align 4
  %6 = load ptr, ptr %input.addr, align 8
  %maxFraction = getelementptr inbounds %struct.b2RayCastInput, ptr %6, i32 0, i32 2
  %7 = load float, ptr %maxFraction, align 4
  store float %7, ptr %upper, align 4
  store i32 -1, ptr %index, align 4
  store i32 0, ptr %i, align 4
  br label %for.cond

for.cond:                                         ; preds = %for.inc, %entry
  %8 = load i32, ptr %i, align 4
  %m_count = getelementptr inbounds %class.b2PolygonShape, ptr %this1, i32 0, i32 4
  %9 = load i32, ptr %m_count, align 8
  %cmp = icmp slt i32 %8, %9
  br i1 %cmp, label %for.body, label %for.end

for.body:                                         ; preds = %for.cond
  %m_normals = getelementptr inbounds %class.b2PolygonShape, ptr %this1, i32 0, i32 3
  %10 = load i32, ptr %i, align 4
  %idxprom = sext i32 %10 to i64
  %arrayidx = getelementptr inbounds [8 x %struct.b2Vec2], ptr %m_normals, i64 0, i64 %idxprom
  %m_vertices = getelementptr inbounds %class.b2PolygonShape, ptr %this1, i32 0, i32 2
  %11 = load i32, ptr %i, align 4
  %idxprom12 = sext i32 %11 to i64
  %arrayidx13 = getelementptr inbounds [8 x %struct.b2Vec2], ptr %m_vertices, i64 0, i64 %idxprom12
  %call14 = call <2 x float> @_ZmiRK6b2Vec2S1_(ptr noundef nonnull align 4 dereferenceable(8) %arrayidx13, ptr noundef nonnull align 4 dereferenceable(8) %p1)
  store <2 x float> %call14, ptr %ref.tmp11, align 4
  %call15 = call noundef float @_Z5b2DotRK6b2Vec2S1_(ptr noundef nonnull align 4 dereferenceable(8) %arrayidx, ptr noundef nonnull align 4 dereferenceable(8) %ref.tmp11)
  store float %call15, ptr %numerator, align 4
  %m_normals16 = getelementptr inbounds %class.b2PolygonShape, ptr %this1, i32 0, i32 3
  %12 = load i32, ptr %i, align 4
  %idxprom17 = sext i32 %12 to i64
  %arrayidx18 = getelementptr inbounds [8 x %struct.b2Vec2], ptr %m_normals16, i64 0, i64 %idxprom17
  %call19 = call noundef float @_Z5b2DotRK6b2Vec2S1_(ptr noundef nonnull align 4 dereferenceable(8) %arrayidx18, ptr noundef nonnull align 4 dereferenceable(8) %d)
  store float %call19, ptr %denominator, align 4
  %13 = load float, ptr %denominator, align 4
  %cmp20 = fcmp oeq float %13, 0.000000e+00
  br i1 %cmp20, label %if.then, label %if.else

if.then:                                          ; preds = %for.body
  %14 = load float, ptr %numerator, align 4
  %cmp21 = fcmp olt float %14, 0.000000e+00
  br i1 %cmp21, label %if.then22, label %if.end

if.then22:                                        ; preds = %if.then
  store i1 false, ptr %retval, align 1
  br label %return

if.end:                                           ; preds = %if.then
  br label %if.end35

if.else:                                          ; preds = %for.body
  %15 = load float, ptr %denominator, align 4
  %cmp23 = fcmp olt float %15, 0.000000e+00
  br i1 %cmp23, label %land.lhs.true, label %if.else26

land.lhs.true:                                    ; preds = %if.else
  %16 = load float, ptr %numerator, align 4
  %17 = load float, ptr %lower, align 4
  %18 = load float, ptr %denominator, align 4
  %mul = fmul float %17, %18
  %cmp24 = fcmp olt float %16, %mul
  br i1 %cmp24, label %if.then25, label %if.else26

if.then25:                                        ; preds = %land.lhs.true
  %19 = load float, ptr %numerator, align 4
  %20 = load float, ptr %denominator, align 4
  %div = fdiv float %19, %20
  store float %div, ptr %lower, align 4
  %21 = load i32, ptr %i, align 4
  store i32 %21, ptr %index, align 4
  br label %if.end34

if.else26:                                        ; preds = %land.lhs.true, %if.else
  %22 = load float, ptr %denominator, align 4
  %cmp27 = fcmp ogt float %22, 0.000000e+00
  br i1 %cmp27, label %land.lhs.true28, label %if.end33

land.lhs.true28:                                  ; preds = %if.else26
  %23 = load float, ptr %numerator, align 4
  %24 = load float, ptr %upper, align 4
  %25 = load float, ptr %denominator, align 4
  %mul29 = fmul float %24, %25
  %cmp30 = fcmp olt float %23, %mul29
  br i1 %cmp30, label %if.then31, label %if.end33

if.then31:                                        ; preds = %land.lhs.true28
  %26 = load float, ptr %numerator, align 4
  %27 = load float, ptr %denominator, align 4
  %div32 = fdiv float %26, %27
  store float %div32, ptr %upper, align 4
  br label %if.end33

if.end33:                                         ; preds = %if.then31, %land.lhs.true28, %if.else26
  br label %if.end34

if.end34:                                         ; preds = %if.end33, %if.then25
  br label %if.end35

if.end35:                                         ; preds = %if.end34, %if.end
  %28 = load float, ptr %upper, align 4
  %29 = load float, ptr %lower, align 4
  %cmp36 = fcmp olt float %28, %29
  br i1 %cmp36, label %if.then37, label %if.end38

if.then37:                                        ; preds = %if.end35
  store i1 false, ptr %retval, align 1
  br label %return

if.end38:                                         ; preds = %if.end35
  br label %for.inc

for.inc:                                          ; preds = %if.end38
  %30 = load i32, ptr %i, align 4
  %inc = add nsw i32 %30, 1
  store i32 %inc, ptr %i, align 4
  br label %for.cond, !llvm.loop !10

for.end:                                          ; preds = %for.cond
  %31 = load i32, ptr %index, align 4
  %cmp39 = icmp sge i32 %31, 0
  br i1 %cmp39, label %if.then40, label %if.end47

if.then40:                                        ; preds = %for.end
  %32 = load float, ptr %lower, align 4
  %33 = load ptr, ptr %output.addr, align 8
  %fraction = getelementptr inbounds %struct.b2RayCastOutput, ptr %33, i32 0, i32 1
  store float %32, ptr %fraction, align 4
  %34 = load ptr, ptr %xf.addr, align 8
  %q42 = getelementptr inbounds %struct.b2Transform, ptr %34, i32 0, i32 1
  %m_normals43 = getelementptr inbounds %class.b2PolygonShape, ptr %this1, i32 0, i32 3
  %35 = load i32, ptr %index, align 4
  %idxprom44 = sext i32 %35 to i64
  %arrayidx45 = getelementptr inbounds [8 x %struct.b2Vec2], ptr %m_normals43, i64 0, i64 %idxprom44
  %call46 = call <2 x float> @_Z5b2MulRK5b2RotRK6b2Vec2(ptr noundef nonnull align 4 dereferenceable(8) %q42, ptr noundef nonnull align 4 dereferenceable(8) %arrayidx45)
  store <2 x float> %call46, ptr %ref.tmp41, align 4
  %36 = load ptr, ptr %output.addr, align 8
  %normal = getelementptr inbounds %struct.b2RayCastOutput, ptr %36, i32 0, i32 0
  call void @llvm.memcpy.p0.p0.i64(ptr align 4 %normal, ptr align 4 %ref.tmp41, i64 8, i1 false)
  store i1 true, ptr %retval, align 1
  br label %return

if.end47:                                         ; preds = %for.end
  store i1 false, ptr %retval, align 1
  br label %return

return:                                           ; preds = %if.end47, %if.then40, %if.then37, %if.then22
  %37 = load i1, ptr %retval, align 1
  ret i1 %37
}