; Function Attrs: mustprogress nofree norecurse nosync nounwind memory(argmem: readwrite) uwtable
define noundef zeroext i1 @_ZNK14b2PolygonShape7RayCastEP15b2RayCastOutputRK14b2RayCastInputRK11b2Transformi(ptr nocapture noundef nonnull readonly align 8 dereferenceable(156) %this, ptr nocapture noundef writeonly %output, ptr nocapture noundef nonnull readonly align 4 dereferenceable(20) %input, ptr nocapture noundef nonnull readonly align 4 dereferenceable(16) %xf, i32 %childIndex) unnamed_addr #7 align 2 {
entry:
  %q = getelementptr inbounds i8, ptr %xf, i64 8
  %0 = load float, ptr %input, align 4
  %1 = load float, ptr %xf, align 4
  %sub.i = fsub float %0, %1
  %y.i = getelementptr inbounds i8, ptr %input, i64 4
  %2 = load float, ptr %y.i, align 4
  %y2.i = getelementptr inbounds i8, ptr %xf, i64 4
  %3 = load float, ptr %y2.i, align 4
  %sub3.i = fsub float %2, %3
  %c.i = getelementptr inbounds i8, ptr %xf, i64 12
  %4 = load float, ptr %c.i, align 4
  %5 = load float, ptr %q, align 4
  %mul1.i = fmul float %sub3.i, %5
  %6 = tail call float @llvm.fmuladd.f32(float %4, float %sub.i, float %mul1.i)
  %fneg.i = fneg float %5
  %mul6.i = fmul float %4, %sub3.i
  %7 = tail call float @llvm.fmuladd.f32(float %fneg.i, float %sub.i, float %mul6.i)
  %p26 = getelementptr inbounds i8, ptr %input, i64 8
  %8 = load float, ptr %p26, align 4
  %sub.i31 = fsub float %8, %1
  %y.i32 = getelementptr inbounds i8, ptr %input, i64 12
  %9 = load float, ptr %y.i32, align 4
  %sub3.i34 = fsub float %9, %3
  %mul1.i39 = fmul float %5, %sub3.i34
  %10 = tail call float @llvm.fmuladd.f32(float %4, float %sub.i31, float %mul1.i39)
  %mul6.i41 = fmul float %4, %sub3.i34
  %11 = tail call float @llvm.fmuladd.f32(float %fneg.i, float %sub.i31, float %mul6.i41)
  %sub.i44 = fsub float %10, %6
  %sub3.i47 = fsub float %11, %7
  %m_count = getelementptr inbounds i8, ptr %this, i64 152
  %12 = load i32, ptr %m_count, align 8
  %cmp72 = icmp sgt i32 %12, 0
  br i1 %cmp72, label %for.body.lr.ph, label %return

for.body.lr.ph:                                   ; preds = %entry
  %maxFraction = getelementptr inbounds i8, ptr %input, i64 16
  %13 = load float, ptr %maxFraction, align 4
  %m_normals = getelementptr inbounds i8, ptr %this, i64 88
  %m_vertices = getelementptr inbounds i8, ptr %this, i64 24
  %wide.trip.count = zext nneg i32 %12 to i64
  br label %for.body

for.cond:                                         ; preds = %if.end35
  %indvars.iv.next = add nuw nsw i64 %indvars.iv, 1
  %exitcond.not = icmp eq i64 %indvars.iv.next, %wide.trip.count
  br i1 %exitcond.not, label %for.end, label %for.body, !llvm.loop !10

for.body:                                         ; preds = %for.body.lr.ph, %for.cond
  %indvars.iv = phi i64 [ 0, %for.body.lr.ph ], [ %indvars.iv.next, %for.cond ]
  %lower.076 = phi float [ 0.000000e+00, %for.body.lr.ph ], [ %lower.1, %for.cond ]
  %upper.075 = phi float [ %13, %for.body.lr.ph ], [ %upper.1, %for.cond ]
  %index.073 = phi i32 [ -1, %for.body.lr.ph ], [ %index.1, %for.cond ]
  %arrayidx = getelementptr inbounds [8 x %struct.b2Vec2], ptr %m_normals, i64 0, i64 %indvars.iv
  %arrayidx13 = getelementptr inbounds [8 x %struct.b2Vec2], ptr %m_vertices, i64 0, i64 %indvars.iv
  %14 = load float, ptr %arrayidx13, align 8
  %sub.i50 = fsub float %14, %6
  %y.i51 = getelementptr inbounds i8, ptr %arrayidx13, i64 4
  %15 = load float, ptr %y.i51, align 4
  %sub3.i53 = fsub float %15, %7
  %16 = load float, ptr %arrayidx, align 8
  %y.i56 = getelementptr inbounds i8, ptr %arrayidx, i64 4
  %17 = load float, ptr %y.i56, align 4
  %mul3.i = fmul float %sub3.i53, %17
  %18 = tail call noundef float @llvm.fmuladd.f32(float %16, float %sub.i50, float %mul3.i)
  %mul3.i60 = fmul float %sub3.i47, %17
  %19 = tail call noundef float @llvm.fmuladd.f32(float %16, float %sub.i44, float %mul3.i60)
  %cmp20 = fcmp oeq float %19, 0.000000e+00
  br i1 %cmp20, label %if.then, label %if.else

if.then:                                          ; preds = %for.body
  %cmp21 = fcmp olt float %18, 0.000000e+00
  br i1 %cmp21, label %return, label %if.end35

if.else:                                          ; preds = %for.body
  %cmp23 = fcmp olt float %19, 0.000000e+00
  %mul = fmul float %lower.076, %19
  %cmp24 = fcmp olt float %18, %mul
  %or.cond = and i1 %cmp23, %cmp24
  br i1 %or.cond, label %if.then25, label %if.else26

if.then25:                                        ; preds = %if.else
  %div = fdiv float %18, %19
  %20 = trunc i64 %indvars.iv to i32
  br label %if.end35

if.else26:                                        ; preds = %if.else
  %cmp27 = fcmp ogt float %19, 0.000000e+00
  %mul29 = fmul float %upper.075, %19
  %cmp30 = fcmp olt float %18, %mul29
  %or.cond27 = select i1 %cmp27, i1 %cmp30, i1 false
  br i1 %or.cond27, label %if.then31, label %if.end35

if.then31:                                        ; preds = %if.else26
  %div32 = fdiv float %18, %19
  br label %if.end35

if.end35:                                         ; preds = %if.then25, %if.then31, %if.else26, %if.then
  %index.1 = phi i32 [ %index.073, %if.then ], [ %20, %if.then25 ], [ %index.073, %if.then31 ], [ %index.073, %if.else26 ]
  %upper.1 = phi float [ %upper.075, %if.then ], [ %upper.075, %if.then25 ], [ %div32, %if.then31 ], [ %upper.075, %if.else26 ]
  %lower.1 = phi float [ %lower.076, %if.then ], [ %div, %if.then25 ], [ %lower.076, %if.then31 ], [ %lower.076, %if.else26 ]
  %cmp36 = fcmp olt float %upper.1, %lower.1
  br i1 %cmp36, label %return, label %for.cond

for.end:                                          ; preds = %for.cond
  %cmp39 = icmp sgt i32 %index.1, -1
  br i1 %cmp39, label %if.then40, label %return

if.then40:                                        ; preds = %for.end
  %fraction = getelementptr inbounds i8, ptr %output, i64 8
  store float %lower.1, ptr %fraction, align 4
  %m_normals43 = getelementptr inbounds i8, ptr %this, i64 88
  %idxprom44 = zext nneg i32 %index.1 to i64
  %arrayidx45 = getelementptr inbounds [8 x %struct.b2Vec2], ptr %m_normals43, i64 0, i64 %idxprom44
  %21 = load float, ptr %arrayidx45, align 8
  %y.i62 = getelementptr inbounds i8, ptr %arrayidx45, i64 4
  %22 = load float, ptr %y.i62, align 4
  %23 = load <2 x float>, ptr %q, align 4
  %24 = shufflevector <2 x float> %23, <2 x float> poison, <2 x i32> <i32 1, i32 0>
  %25 = extractelement <2 x float> %23, i64 0
  %26 = fneg float %25
  %27 = insertelement <2 x float> poison, float %22, i64 0
  %28 = shufflevector <2 x float> %27, <2 x float> poison, <2 x i32> zeroinitializer
  %29 = insertelement <2 x float> %23, float %26, i64 0
  %30 = fmul <2 x float> %28, %29
  %31 = insertelement <2 x float> poison, float %21, i64 0
  %32 = shufflevector <2 x float> %31, <2 x float> poison, <2 x i32> zeroinitializer
  %33 = tail call <2 x float> @llvm.fmuladd.v2f32(<2 x float> %24, <2 x float> %32, <2 x float> %30)
  store <2 x float> %33, ptr %output, align 4
  br label %return

return:                                           ; preds = %if.end35, %if.then, %entry, %for.end, %if.then40
  %retval.0 = phi i1 [ true, %if.then40 ], [ false, %for.end ], [ false, %entry ], [ false, %if.then ], [ false, %if.end35 ]
  ret i1 %retval.0
}